target datalayout = "e-m:e-p270:32:32-p271:32:32-p272:64:64-i64:64-i128:128-f80:128-n8:16:32:64-S128"
target triple = "x86_64-pc-linux-gnu"

%struct.JSValue = type { %union.JSValueUnion, i64 }
%union.JSValueUnion = type { double }
%struct.timeval = type { i64, i64 }

; Function Attrs: nounwind uwtable
define internal i64 @js_get_errno(i64 noundef %0) #0 {
  %2 = alloca i64, align 8
  store i64 %0, ptr %2, align 8
  %3 = load i64, ptr %2, align 8
  %4 = icmp eq i64 %3, -1
  br i1 %4, label %5, label %10

5:                                                ; preds = %1
  %6 = call ptr @__errno_location() #10
  %7 = load i32, ptr %6, align 4
  %8 = sub i32 0, %7
  %9 = sext i32 %8 to i64
  store i64 %9, ptr %2, align 8
  br label %10

10:                                               ; preds = %5, %1
  %11 = load i64, ptr %2, align 8
  ret i64 %11
}

; Function Attrs: nounwind uwtable
define internal void @ms_to_timeval(ptr noundef %0, i64 noundef %1) #0 {
  %3 = alloca ptr, align 8
  %4 = alloca i64, align 8
  store ptr %0, ptr %3, align 8
  store i64 %1, ptr %4, align 8
  %5 = load i64, ptr %4, align 8
  %6 = udiv i64 %5, 1000
  %7 = load ptr, ptr %3, align 8
  %8 = getelementptr inbounds %struct.timeval, ptr %7, i32 0, i32 0
  store i64 %6, ptr %8, align 8
  %9 = load i64, ptr %4, align 8
  %10 = urem i64 %9, 1000
  %11 = mul i64 %10, 1000
  %12 = load ptr, ptr %3, align 8
  %13 = getelementptr inbounds %struct.timeval, ptr %12, i32 0, i32 1
  store i64 %11, ptr %13, align 8
  ret void
}

; Function Attrs: nounwind uwtable
define internal ptr @JS_ToCString(ptr noundef %0, i64 %1, i64 %2) #0 {
  %4 = alloca %struct.JSValue, align 8
  %5 = alloca ptr, align 8
  %6 = getelementptr inbounds { i64, i64 }, ptr %4, i32 0, i32 0
  store i64 %1, ptr %6, align 8
  %7 = getelementptr inbounds { i64, i64 }, ptr %4, i32 0, i32 1
  store i64 %2, ptr %7, align 8
  store ptr %0, ptr %5, align 8
  %8 = load ptr, ptr %5, align 8
  %9 = getelementptr inbounds { i64, i64 }, ptr %4, i32 0, i32 0
  %10 = load i64, ptr %9, align 8
  %11 = getelementptr inbounds { i64, i64 }, ptr %4, i32 0, i32 1
  %12 = load i64, ptr %11, align 8
  %13 = call ptr @JS_ToCStringLen2(ptr noundef %8, ptr noundef null, i64 %10, i64 %12, i32 noundef 0)
  ret ptr %13
}

; Function Attrs: nounwind uwtable
define internal { i64, i64 } @js_os_utimes(ptr noundef %0, i64 %1, i64 %2, i32 noundef %3, ptr noundef %4) #0 {
  %6 = alloca %struct.JSValue, align 8
  %7 = alloca ptr, align 8
  %8 = alloca i32, align 4
  %9 = alloca %struct.JSValue, align 8
  %10 = alloca %struct.JSValue, align 8
  %11 = alloca ptr, align 8
  %12 = alloca i32, align 4
  %13 = alloca ptr, align 8
  %14 = alloca ptr, align 8
  %15 = alloca i64, align 8
  %16 = alloca i64, align 8
  %17 = alloca i32, align 4
  %18 = alloca [2 x %struct.timeval], align 16
  %19 = getelementptr inbounds { i64, i64 }, ptr %10, i32 0, i32 0
  store i64 %1, ptr %19, align 8
  %20 = getelementptr inbounds { i64, i64 }, ptr %10, i32 0, i32 1
  store i64 %2, ptr %20, align 8
  store ptr %0, ptr %11, align 8
  store i32 %3, ptr %12, align 4
  store ptr %4, ptr %13, align 8
  %21 = load ptr, ptr %11, align 8
  %22 = load ptr, ptr %13, align 8
  %23 = getelementptr %struct.JSValue, ptr %22, i64 1
  %24 = getelementptr inbounds { i64, i64 }, ptr %23, i32 0, i32 0
  %25 = load i64, ptr %24, align 8
  %26 = getelementptr inbounds { i64, i64 }, ptr %23, i32 0, i32 1
  %27 = load i64, ptr %26, align 8
  %28 = call i32 @JS_ToInt64(ptr noundef %21, ptr noundef %15, i64 %25, i64 %27)
  %29 = icmp ne i32 %28, 0
  br i1 %29, label %30, label %33

30:                                               ; preds = %5
  %31 = getelementptr inbounds %struct.JSValue, ptr %9, i32 0, i32 0
  store i32 0, ptr %31, align 8
  %32 = getelementptr inbounds %struct.JSValue, ptr %9, i32 0, i32 1
  store i64 6, ptr %32, align 8
  br label %82

33:                                               ; preds = %5
  %34 = load ptr, ptr %11, align 8
  %35 = load ptr, ptr %13, align 8
  %36 = getelementptr %struct.JSValue, ptr %35, i64 2
  %37 = getelementptr inbounds { i64, i64 }, ptr %36, i32 0, i32 0
  %38 = load i64, ptr %37, align 8
  %39 = getelementptr inbounds { i64, i64 }, ptr %36, i32 0, i32 1
  %40 = load i64, ptr %39, align 8
  %41 = call i32 @JS_ToInt64(ptr noundef %34, ptr noundef %16, i64 %38, i64 %40)
  %42 = icmp ne i32 %41, 0
  br i1 %42, label %43, label %46

43:                                               ; preds = %33
  %44 = getelementptr inbounds %struct.JSValue, ptr %9, i32 0, i32 0
  store i32 0, ptr %44, align 8
  %45 = getelementptr inbounds %struct.JSValue, ptr %9, i32 0, i32 1
  store i64 6, ptr %45, align 8
  br label %82

46:                                               ; preds = %33
  %47 = load ptr, ptr %11, align 8
  %48 = load ptr, ptr %13, align 8
  %49 = getelementptr %struct.JSValue, ptr %48, i64 0
  %50 = getelementptr inbounds { i64, i64 }, ptr %49, i32 0, i32 0
  %51 = load i64, ptr %50, align 8
  %52 = getelementptr inbounds { i64, i64 }, ptr %49, i32 0, i32 1
  %53 = load i64, ptr %52, align 8
  %54 = call ptr @JS_ToCString(ptr noundef %47, i64 %51, i64 %53)
  store ptr %54, ptr %14, align 8
  %55 = load ptr, ptr %14, align 8
  %56 = icmp ne ptr %55, null
  br i1 %56, label %60, label %57

57:                                               ; preds = %46
  %58 = getelementptr inbounds %struct.JSValue, ptr %9, i32 0, i32 0
  store i32 0, ptr %58, align 8
  %59 = getelementptr inbounds %struct.JSValue, ptr %9, i32 0, i32 1
  store i64 6, ptr %59, align 8
  br label %82

60:                                               ; preds = %46
  %61 = getelementptr [2 x %struct.timeval], ptr %18, i64 0, i64 0
  %62 = load i64, ptr %15, align 8
  call void @ms_to_timeval(ptr noundef %61, i64 noundef %62)
  %63 = getelementptr [2 x %struct.timeval], ptr %18, i64 0, i64 1
  %64 = load i64, ptr %16, align 8
  call void @ms_to_timeval(ptr noundef %63, i64 noundef %64)
  %65 = load ptr, ptr %14, align 8
  %66 = getelementptr inbounds [2 x %struct.timeval], ptr %18, i64 0, i64 0
  %67 = call i32 @utimes(ptr noundef %65, ptr noundef %66) #12
  %68 = sext i32 %67 to i64
  %69 = call i64 @js_get_errno(i64 noundef %68)
  %70 = trunc i64 %69 to i32
  store i32 %70, ptr %17, align 4
  %71 = load ptr, ptr %11, align 8
  %72 = load ptr, ptr %14, align 8
  call void @JS_FreeCString(ptr noundef %71, ptr noundef %72)
  %73 = load ptr, ptr %11, align 8
  %74 = load i32, ptr %17, align 4
  store ptr %73, ptr %7, align 8
  store i32 %74, ptr %8, align 4
  %75 = load i32, ptr %8, align 4
  store i32 %75, ptr %6, align 8
  %76 = getelementptr inbounds %struct.JSValue, ptr %6, i32 0, i32 1
  store i64 0, ptr %76, align 8
  %77 = load { i64, i64 }, ptr %6, align 8
  %78 = getelementptr inbounds { i64, i64 }, ptr %9, i32 0, i32 0
  %79 = extractvalue { i64, i64 } %77, 0
  store i64 %79, ptr %78, align 8
  %80 = getelementptr inbounds { i64, i64 }, ptr %9, i32 0, i32 1
  %81 = extractvalue { i64, i64 } %77, 1
  store i64 %81, ptr %80, align 8
  br label %82

82:                                               ; preds = %60, %57, %43, %30
  %83 = load { i64, i64 }, ptr %9, align 8
  ret { i64, i64 } %83
}