; Function Attrs: nounwind uwtable
define internal { i64, i64 } @js_os_utimes(ptr noundef %0, i64 %1, i64 %2, i32 %3, ptr nocapture noundef readonly %4) #0 {
  %6 = alloca i64, align 8
  %7 = alloca i64, align 8
  %8 = alloca [2 x %struct.timeval], align 16
  %9 = getelementptr i8, ptr %4, i64 16
  %10 = load i64, ptr %9, align 8
  %11 = getelementptr i8, ptr %4, i64 24
  %12 = load i64, ptr %11, align 8
  %13 = call i32 @JS_ToInt64(ptr noundef %0, ptr noundef nonnull %6, i64 %10, i64 %12) #29
  %.not = icmp eq i32 %13, 0
  br i1 %.not, label %14, label %43

14:                                               ; preds = %5
  %15 = getelementptr i8, ptr %4, i64 32
  %16 = load i64, ptr %15, align 8
  %17 = getelementptr i8, ptr %4, i64 40
  %18 = load i64, ptr %17, align 8
  %19 = call i32 @JS_ToInt64(ptr noundef %0, ptr noundef nonnull %7, i64 %16, i64 %18) #29
  %.not19 = icmp eq i32 %19, 0
  br i1 %.not19, label %20, label %43

20:                                               ; preds = %14
  %21 = load i64, ptr %4, align 8
  %22 = getelementptr inbounds i8, ptr %4, i64 8
  %23 = load i64, ptr %22, align 8
  %24 = call ptr @JS_ToCStringLen2(ptr noundef %0, ptr noundef null, i64 %21, i64 %23, i32 noundef 0) #29
  %.not20 = icmp eq ptr %24, null
  br i1 %.not20, label %43, label %25

25:                                               ; preds = %20
  %26 = load i64, ptr %6, align 8
  %27 = udiv i64 %26, 1000
  store i64 %27, ptr %8, align 16
  %28 = urem i64 %26, 1000
  %29 = mul nuw nsw i64 %28, 1000
  %30 = getelementptr inbounds i8, ptr %8, i64 8
  store i64 %29, ptr %30, align 8
  %31 = getelementptr inbounds i8, ptr %8, i64 16
  %32 = load i64, ptr %7, align 8
  %33 = udiv i64 %32, 1000
  store i64 %33, ptr %31, align 16
  %34 = urem i64 %32, 1000
  %35 = mul nuw nsw i64 %34, 1000
  %36 = getelementptr inbounds i8, ptr %8, i64 24
  store i64 %35, ptr %36, align 8
  %37 = call i32 @utimes(ptr noundef nonnull %24, ptr noundef nonnull %8) #29
  %38 = icmp eq i32 %37, -1
  br i1 %38, label %39, label %js_get_errno.exit

39:                                               ; preds = %25
  %40 = tail call ptr @__errno_location() #28
  %41 = load i32, ptr %40, align 4
  %42 = sub i32 0, %41
  br label %js_get_errno.exit

js_get_errno.exit:                                ; preds = %25, %39
  %.0.i.in = phi i32 [ %42, %39 ], [ %37, %25 ]
  %.0.i = zext i32 %.0.i.in to i64
  call void @JS_FreeCString(ptr noundef %0, ptr noundef nonnull %24) #29
  br label %43

43:                                               ; preds = %20, %14, %5, %js_get_errno.exit
  %.sroa.011.0 = phi i64 [ %.0.i, %js_get_errno.exit ], [ 0, %5 ], [ 0, %14 ], [ 0, %20 ]
  %.sroa.5.sroa.2.0 = phi i64 [ 0, %js_get_errno.exit ], [ 6, %5 ], [ 6, %14 ], [ 6, %20 ]
  %.fca.0.insert = insertvalue { i64, i64 } poison, i64 %.sroa.011.0, 0
  %.fca.1.insert = insertvalue { i64, i64 } %.fca.0.insert, i64 %.sroa.5.sroa.2.0, 1
  ret { i64, i64 } %.fca.1.insert
}